target datalayout = "e-m:e-p270:32:32-p271:32:32-p272:64:64-i64:64-i128:128-f80:128-n8:16:32:64-S128"
target triple = "x86_64-pc-linux-gnu"

%struct.json_dumper = type { ptr, ptr, i32, i32, i32, i32, [1100 x i8] }
%struct.nstime_t = type { i64, i32 }
%struct._rtd_data_t = type { %struct._rtd_stat_table, ptr }
%struct._rtd_stat_table = type { ptr, i32, ptr }
%struct._rtd_timestat = type { i32, ptr, i32, i32, i32, i32 }
%struct._timestat_t = type { i32, i32, i32, %struct.nstime_t, %struct.nstime_t, %struct.nstime_t, double }

@dumper = internal global %struct.json_dumper zeroinitializer, align 8
@.str.20 = private unnamed_addr constant [4 x i8] c"tap\00", align 1
@.str.123 = private unnamed_addr constant [3 x i8] c"%u\00", align 1
@.str.125 = private unnamed_addr constant [5 x i8] c"%.9f\00", align 1
@.str.140 = private unnamed_addr constant [6 x i8] c"stats\00", align 1
@.str.164 = private unnamed_addr constant [4 x i8] c"rtd\00", align 1
@.str.177 = private unnamed_addr constant [7 x i8] c"rtd:%s\00", align 1
@.str.196 = private unnamed_addr constant [4 x i8] c"num\00", align 1
@.str.244 = private unnamed_addr constant [5 x i8] c"type\00", align 1
@.str.248 = private unnamed_addr constant [4 x i8] c"min\00", align 1
@.str.249 = private unnamed_addr constant [4 x i8] c"max\00", align 1
@.str.300 = private unnamed_addr constant [9 x i8] c"open_req\00", align 1
@.str.301 = private unnamed_addr constant [9 x i8] c"disc_rsp\00", align 1
@.str.302 = private unnamed_addr constant [8 x i8] c"req_dup\00", align 1
@.str.303 = private unnamed_addr constant [8 x i8] c"rsp_dup\00", align 1
@.str.304 = private unnamed_addr constant [6 x i8] c"Other\00", align 1
@.str.305 = private unnamed_addr constant [4 x i8] c"tot\00", align 1
@.str.306 = private unnamed_addr constant [10 x i8] c"min_frame\00", align 1
@.str.307 = private unnamed_addr constant [10 x i8] c"max_frame\00", align 1

; Function Attrs: null_pointer_is_valid sspstrong uwtable
define internal void @sharkd_json_array_close() #0 {
  call void @json_dumper_end_array(ptr noundef @dumper)
  ret void
}

; Function Attrs: null_pointer_is_valid sspstrong uwtable
define internal void @sharkd_json_array_open(ptr noundef %0) #0 {
  %2 = alloca ptr, align 8
  store ptr %0, ptr %2, align 8
  %3 = load ptr, ptr %2, align 8
  %4 = icmp ne ptr %3, null
  br i1 %4, label %5, label %7

5:                                                ; preds = %1
  %6 = load ptr, ptr %2, align 8
  call void @json_dumper_set_member_name(ptr noundef @dumper, ptr noundef %6)
  br label %7

7:                                                ; preds = %5, %1
  call void @json_dumper_begin_array(ptr noundef @dumper)
  ret void
}

; Function Attrs: null_pointer_is_valid sspstrong uwtable
define internal void @sharkd_json_value_string(ptr noundef %0, ptr noundef %1) #0 {
  %3 = alloca ptr, align 8
  %4 = alloca ptr, align 8
  store ptr %0, ptr %3, align 8
  store ptr %1, ptr %4, align 8
  %5 = load ptr, ptr %3, align 8
  %6 = icmp ne ptr %5, null
  br i1 %6, label %7, label %9

7:                                                ; preds = %2
  %8 = load ptr, ptr %3, align 8
  call void @json_dumper_set_member_name(ptr noundef @dumper, ptr noundef %8)
  br label %9

9:                                                ; preds = %7, %2
  %10 = load ptr, ptr %4, align 8
  call void @json_dumper_value_string(ptr noundef @dumper, ptr noundef %10)
  ret void
}

; Function Attrs: null_pointer_is_valid sspstrong uwtable
define internal void @sharkd_session_process_tap_rtd_cb(ptr noundef %0) #0 {
  %2 = alloca ptr, align 8
  %3 = alloca ptr, align 8
  %4 = alloca ptr, align 8
  %5 = alloca i32, align 4
  %6 = alloca i32, align 4
  %7 = alloca ptr, align 8
  %8 = alloca ptr, align 8
  %9 = alloca ptr, align 8
  %10 = alloca ptr, align 8
  %11 = alloca ptr, align 8
  %12 = alloca i32, align 4
  store ptr %0, ptr %2, align 8
  call void @llvm.lifetime.start.p0(i64 8, ptr %3) #21
  %13 = load ptr, ptr %2, align 8
  store ptr %13, ptr %3, align 8
  call void @llvm.lifetime.start.p0(i64 8, ptr %4) #21
  %14 = load ptr, ptr %3, align 8
  %15 = getelementptr inbounds nuw %struct._rtd_data_t, ptr %14, i32 0, i32 1
  %16 = load ptr, ptr %15, align 8
  store ptr %16, ptr %4, align 8
  call void @llvm.lifetime.start.p0(i64 4, ptr %5) #21
  call void @llvm.lifetime.start.p0(i64 4, ptr %6) #21
  call void @llvm.lifetime.start.p0(i64 8, ptr %7) #21
  %17 = load ptr, ptr %4, align 8
  %18 = call i32 @get_rtd_proto_id(ptr noundef %17)
  %19 = call ptr @proto_get_protocol_filter_name(i32 noundef %18)
  store ptr %19, ptr %7, align 8
  call void @llvm.lifetime.start.p0(i64 8, ptr %8) #21
  %20 = load ptr, ptr %4, align 8
  %21 = call ptr @get_rtd_value_string(ptr noundef %20)
  store ptr %21, ptr %8, align 8
  call void @json_dumper_begin_object(ptr noundef @dumper)
  %22 = load ptr, ptr %7, align 8
  call void (ptr, ptr, ...) @sharkd_json_value_stringf(ptr noundef @.str.20, ptr noundef @.str.177, ptr noundef %22)
  call void @sharkd_json_value_string(ptr noundef @.str.244, ptr noundef @.str.164)
  %23 = load ptr, ptr %3, align 8
  %24 = getelementptr inbounds nuw %struct._rtd_data_t, ptr %23, i32 0, i32 0
  %25 = getelementptr inbounds nuw %struct._rtd_stat_table, ptr %24, i32 0, i32 1
  %26 = load i32, ptr %25, align 8
  %27 = icmp eq i32 %26, 1
  br i1 %27, label %28, label %46

28:                                               ; preds = %1
  call void @llvm.lifetime.start.p0(i64 8, ptr %9) #21
  %29 = load ptr, ptr %3, align 8
  %30 = getelementptr inbounds nuw %struct._rtd_data_t, ptr %29, i32 0, i32 0
  %31 = getelementptr inbounds nuw %struct._rtd_stat_table, ptr %30, i32 0, i32 2
  %32 = load ptr, ptr %31, align 8
  %33 = getelementptr %struct._rtd_timestat, ptr %32, i64 0
  store ptr %33, ptr %9, align 8
  %34 = load ptr, ptr %9, align 8
  %35 = getelementptr inbounds nuw %struct._rtd_timestat, ptr %34, i32 0, i32 2
  %36 = load i32, ptr %35, align 8
  call void (ptr, ptr, ...) @sharkd_json_value_anyf(ptr noundef @.str.300, ptr noundef @.str.123, i32 noundef %36)
  %37 = load ptr, ptr %9, align 8
  %38 = getelementptr inbounds nuw %struct._rtd_timestat, ptr %37, i32 0, i32 3
  %39 = load i32, ptr %38, align 4
  call void (ptr, ptr, ...) @sharkd_json_value_anyf(ptr noundef @.str.301, ptr noundef @.str.123, i32 noundef %39)
  %40 = load ptr, ptr %9, align 8
  %41 = getelementptr inbounds nuw %struct._rtd_timestat, ptr %40, i32 0, i32 4
  %42 = load i32, ptr %41, align 8
  call void (ptr, ptr, ...) @sharkd_json_value_anyf(ptr noundef @.str.302, ptr noundef @.str.123, i32 noundef %42)
  %43 = load ptr, ptr %9, align 8
  %44 = getelementptr inbounds nuw %struct._rtd_timestat, ptr %43, i32 0, i32 5
  %45 = load i32, ptr %44, align 4
  call void (ptr, ptr, ...) @sharkd_json_value_anyf(ptr noundef @.str.303, ptr noundef @.str.123, i32 noundef %45)
  call void @llvm.lifetime.end.p0(i64 8, ptr %9) #21
  br label %46

46:                                               ; preds = %28, %1
  call void @sharkd_json_array_open(ptr noundef @.str.140)
  store i32 0, ptr %5, align 4
  br label %47

47:                                               ; preds = %169, %46
  %48 = load i32, ptr %5, align 4
  %49 = load ptr, ptr %3, align 8
  %50 = getelementptr inbounds nuw %struct._rtd_data_t, ptr %49, i32 0, i32 0
  %51 = getelementptr inbounds nuw %struct._rtd_stat_table, ptr %50, i32 0, i32 1
  %52 = load i32, ptr %51, align 8
  %53 = icmp ult i32 %48, %52
  br i1 %53, label %54, label %172

54:                                               ; preds = %47
  call void @llvm.lifetime.start.p0(i64 8, ptr %10) #21
  %55 = load ptr, ptr %3, align 8
  %56 = getelementptr inbounds nuw %struct._rtd_data_t, ptr %55, i32 0, i32 0
  %57 = getelementptr inbounds nuw %struct._rtd_stat_table, ptr %56, i32 0, i32 2
  %58 = load ptr, ptr %57, align 8
  %59 = load i32, ptr %5, align 4
  %60 = zext i32 %59 to i64
  %61 = getelementptr %struct._rtd_timestat, ptr %58, i64 %60
  store ptr %61, ptr %10, align 8
  store i32 0, ptr %6, align 4
  br label %62

62:                                               ; preds = %165, %54
  %63 = load i32, ptr %6, align 4
  %64 = load ptr, ptr %10, align 8
  %65 = getelementptr inbounds nuw %struct._rtd_timestat, ptr %64, i32 0, i32 0
  %66 = load i32, ptr %65, align 8
  %67 = icmp ult i32 %63, %66
  br i1 %67, label %68, label %168

68:                                               ; preds = %62
  call void @llvm.lifetime.start.p0(i64 8, ptr %11) #21
  %69 = load ptr, ptr %10, align 8
  %70 = getelementptr inbounds nuw %struct._rtd_timestat, ptr %69, i32 0, i32 1
  %71 = load ptr, ptr %70, align 8
  %72 = load i32, ptr %6, align 4
  %73 = zext i32 %72 to i64
  %74 = getelementptr %struct._timestat_t, ptr %71, i64 %73
  %75 = getelementptr inbounds nuw %struct._timestat_t, ptr %74, i32 0, i32 0
  %76 = load i32, ptr %75, align 8
  %77 = icmp eq i32 %76, 0
  br i1 %77, label %78, label %79

78:                                               ; preds = %68
  store i32 7, ptr %12, align 4
  br label %162

79:                                               ; preds = %68
  call void @json_dumper_begin_object(ptr noundef @dumper)
  %80 = load ptr, ptr %3, align 8
  %81 = getelementptr inbounds nuw %struct._rtd_data_t, ptr %80, i32 0, i32 0
  %82 = getelementptr inbounds nuw %struct._rtd_stat_table, ptr %81, i32 0, i32 1
  %83 = load i32, ptr %82, align 8
  %84 = icmp eq i32 %83, 1
  br i1 %84, label %85, label %89

85:                                               ; preds = %79
  %86 = load i32, ptr %6, align 4
  %87 = load ptr, ptr %8, align 8
  %88 = call ptr @val_to_str_const(i32 noundef %86, ptr noundef %87, ptr noundef @.str.304)
  store ptr %88, ptr %11, align 8
  br label %93

89:                                               ; preds = %79
  %90 = load i32, ptr %5, align 4
  %91 = load ptr, ptr %8, align 8
  %92 = call ptr @val_to_str_const(i32 noundef %90, ptr noundef %91, ptr noundef @.str.304)
  store ptr %92, ptr %11, align 8
  br label %93

93:                                               ; preds = %89, %85
  %94 = load ptr, ptr %11, align 8
  call void @sharkd_json_value_string(ptr noundef @.str.244, ptr noundef %94)
  %95 = load ptr, ptr %10, align 8
  %96 = getelementptr inbounds nuw %struct._rtd_timestat, ptr %95, i32 0, i32 1
  %97 = load ptr, ptr %96, align 8
  %98 = load i32, ptr %6, align 4
  %99 = zext i32 %98 to i64
  %100 = getelementptr %struct._timestat_t, ptr %97, i64 %99
  %101 = getelementptr inbounds nuw %struct._timestat_t, ptr %100, i32 0, i32 0
  %102 = load i32, ptr %101, align 8
  call void (ptr, ptr, ...) @sharkd_json_value_anyf(ptr noundef @.str.196, ptr noundef @.str.123, i32 noundef %102)
  %103 = load ptr, ptr %10, align 8
  %104 = getelementptr inbounds nuw %struct._rtd_timestat, ptr %103, i32 0, i32 1
  %105 = load ptr, ptr %104, align 8
  %106 = load i32, ptr %6, align 4
  %107 = zext i32 %106 to i64
  %108 = getelementptr %struct._timestat_t, ptr %105, i64 %107
  %109 = getelementptr inbounds nuw %struct._timestat_t, ptr %108, i32 0, i32 3
  %110 = call double @nstime_to_sec(ptr noundef %109)
  call void (ptr, ptr, ...) @sharkd_json_value_anyf(ptr noundef @.str.248, ptr noundef @.str.125, double noundef %110)
  %111 = load ptr, ptr %10, align 8
  %112 = getelementptr inbounds nuw %struct._rtd_timestat, ptr %111, i32 0, i32 1
  %113 = load ptr, ptr %112, align 8
  %114 = load i32, ptr %6, align 4
  %115 = zext i32 %114 to i64
  %116 = getelementptr %struct._timestat_t, ptr %113, i64 %115
  %117 = getelementptr inbounds nuw %struct._timestat_t, ptr %116, i32 0, i32 4
  %118 = call double @nstime_to_sec(ptr noundef %117)
  call void (ptr, ptr, ...) @sharkd_json_value_anyf(ptr noundef @.str.249, ptr noundef @.str.125, double noundef %118)
  %119 = load ptr, ptr %10, align 8
  %120 = getelementptr inbounds nuw %struct._rtd_timestat, ptr %119, i32 0, i32 1
  %121 = load ptr, ptr %120, align 8
  %122 = load i32, ptr %6, align 4
  %123 = zext i32 %122 to i64
  %124 = getelementptr %struct._timestat_t, ptr %121, i64 %123
  %125 = getelementptr inbounds nuw %struct._timestat_t, ptr %124, i32 0, i32 5
  %126 = call double @nstime_to_sec(ptr noundef %125)
  call void (ptr, ptr, ...) @sharkd_json_value_anyf(ptr noundef @.str.305, ptr noundef @.str.125, double noundef %126)
  %127 = load ptr, ptr %10, align 8
  %128 = getelementptr inbounds nuw %struct._rtd_timestat, ptr %127, i32 0, i32 1
  %129 = load ptr, ptr %128, align 8
  %130 = load i32, ptr %6, align 4
  %131 = zext i32 %130 to i64
  %132 = getelementptr %struct._timestat_t, ptr %129, i64 %131
  %133 = getelementptr inbounds nuw %struct._timestat_t, ptr %132, i32 0, i32 1
  %134 = load i32, ptr %133, align 4
  call void (ptr, ptr, ...) @sharkd_json_value_anyf(ptr noundef @.str.306, ptr noundef @.str.123, i32 noundef %134)
  %135 = load ptr, ptr %10, align 8
  %136 = getelementptr inbounds nuw %struct._rtd_timestat, ptr %135, i32 0, i32 1
  %137 = load ptr, ptr %136, align 8
  %138 = load i32, ptr %6, align 4
  %139 = zext i32 %138 to i64
  %140 = getelementptr %struct._timestat_t, ptr %137, i64 %139
  %141 = getelementptr inbounds nuw %struct._timestat_t, ptr %140, i32 0, i32 2
  %142 = load i32, ptr %141, align 8
  call void (ptr, ptr, ...) @sharkd_json_value_anyf(ptr noundef @.str.307, ptr noundef @.str.123, i32 noundef %142)
  %143 = load ptr, ptr %3, align 8
  %144 = getelementptr inbounds nuw %struct._rtd_data_t, ptr %143, i32 0, i32 0
  %145 = getelementptr inbounds nuw %struct._rtd_stat_table, ptr %144, i32 0, i32 1
  %146 = load i32, ptr %145, align 8
  %147 = icmp ne i32 %146, 1
  br i1 %147, label %148, label %161

148:                                              ; preds = %93
  %149 = load ptr, ptr %10, align 8
  %150 = getelementptr inbounds nuw %struct._rtd_timestat, ptr %149, i32 0, i32 2
  %151 = load i32, ptr %150, align 8
  call void (ptr, ptr, ...) @sharkd_json_value_anyf(ptr noundef @.str.300, ptr noundef @.str.123, i32 noundef %151)
  %152 = load ptr, ptr %10, align 8
  %153 = getelementptr inbounds nuw %struct._rtd_timestat, ptr %152, i32 0, i32 3
  %154 = load i32, ptr %153, align 4
  call void (ptr, ptr, ...) @sharkd_json_value_anyf(ptr noundef @.str.301, ptr noundef @.str.123, i32 noundef %154)
  %155 = load ptr, ptr %10, align 8
  %156 = getelementptr inbounds nuw %struct._rtd_timestat, ptr %155, i32 0, i32 4
  %157 = load i32, ptr %156, align 8
  call void (ptr, ptr, ...) @sharkd_json_value_anyf(ptr noundef @.str.302, ptr noundef @.str.123, i32 noundef %157)
  %158 = load ptr, ptr %10, align 8
  %159 = getelementptr inbounds nuw %struct._rtd_timestat, ptr %158, i32 0, i32 5
  %160 = load i32, ptr %159, align 4
  call void (ptr, ptr, ...) @sharkd_json_value_anyf(ptr noundef @.str.303, ptr noundef @.str.123, i32 noundef %160)
  br label %161

161:                                              ; preds = %148, %93
  call void @json_dumper_end_object(ptr noundef @dumper)
  store i32 0, ptr %12, align 4
  br label %162

162:                                              ; preds = %161, %78
  call void @llvm.lifetime.end.p0(i64 8, ptr %11) #21
  %163 = load i32, ptr %12, align 4
  switch i32 %163, label %173 [
    i32 0, label %164
    i32 7, label %165
  ]

164:                                              ; preds = %162
  br label %165

165:                                              ; preds = %164, %162
  %166 = load i32, ptr %6, align 4
  %167 = add i32 %166, 1
  store i32 %167, ptr %6, align 4
  br label %62, !llvm.loop !56

168:                                              ; preds = %62
  call void @llvm.lifetime.end.p0(i64 8, ptr %10) #21
  br label %169

169:                                              ; preds = %168
  %170 = load i32, ptr %5, align 4
  %171 = add i32 %170, 1
  store i32 %171, ptr %5, align 4
  br label %47, !llvm.loop !57

172:                                              ; preds = %47
  call void @sharkd_json_array_close()
  call void @json_dumper_end_object(ptr noundef @dumper)
  call void @llvm.lifetime.end.p0(i64 8, ptr %8) #21
  call void @llvm.lifetime.end.p0(i64 8, ptr %7) #21
  call void @llvm.lifetime.end.p0(i64 4, ptr %6) #21
  call void @llvm.lifetime.end.p0(i64 4, ptr %5) #21
  call void @llvm.lifetime.end.p0(i64 8, ptr %4) #21
  call void @llvm.lifetime.end.p0(i64 8, ptr %3) #21
  ret void

173:                                              ; preds = %162
  unreachable
}