; Function Attrs: null_pointer_is_valid sspstrong uwtable
define internal void @sharkd_session_process_tap_rtd_cb(ptr noundef readonly captures(none) %0) #0 {
  %2 = getelementptr inbounds nuw i8, ptr %0, i64 24
  %3 = load ptr, ptr %2, align 8
  %4 = tail call i32 @get_rtd_proto_id(ptr noundef %3)
  %5 = tail call ptr @proto_get_protocol_filter_name(i32 noundef %4)
  %6 = tail call ptr @get_rtd_value_string(ptr noundef %3)
  tail call void @json_dumper_begin_object(ptr noundef nonnull @dumper)
  tail call void (ptr, ptr, ...) @sharkd_json_value_stringf(ptr noundef nonnull @.str.20, ptr noundef nonnull @.str.177, ptr noundef %5)
  tail call void @json_dumper_set_member_name(ptr noundef nonnull @dumper, ptr noundef nonnull @.str.244)
  tail call void @json_dumper_value_string(ptr noundef nonnull @dumper, ptr noundef nonnull @.str.164)
  %7 = getelementptr inbounds nuw i8, ptr %0, i64 8
  %8 = load i32, ptr %7, align 8
  %9 = icmp eq i32 %8, 1
  br i1 %9, label %10, label %21

10:                                               ; preds = %1
  %11 = getelementptr inbounds nuw i8, ptr %0, i64 16
  %12 = load ptr, ptr %11, align 8
  %13 = getelementptr inbounds nuw i8, ptr %12, i64 16
  %14 = load i32, ptr %13, align 8
  tail call void (ptr, ptr, ...) @sharkd_json_value_anyf(ptr noundef nonnull @.str.300, ptr noundef nonnull @.str.123, i32 noundef %14)
  %15 = getelementptr inbounds nuw i8, ptr %12, i64 20
  %16 = load i32, ptr %15, align 4
  tail call void (ptr, ptr, ...) @sharkd_json_value_anyf(ptr noundef nonnull @.str.301, ptr noundef nonnull @.str.123, i32 noundef %16)
  %17 = getelementptr inbounds nuw i8, ptr %12, i64 24
  %18 = load i32, ptr %17, align 8
  tail call void (ptr, ptr, ...) @sharkd_json_value_anyf(ptr noundef nonnull @.str.302, ptr noundef nonnull @.str.123, i32 noundef %18)
  %19 = getelementptr inbounds nuw i8, ptr %12, i64 28
  %20 = load i32, ptr %19, align 4
  tail call void (ptr, ptr, ...) @sharkd_json_value_anyf(ptr noundef nonnull @.str.303, ptr noundef nonnull @.str.123, i32 noundef %20)
  br label %21

21:                                               ; preds = %10, %1
  tail call void @json_dumper_set_member_name(ptr noundef nonnull @dumper, ptr noundef nonnull @.str.140)
  tail call void @json_dumper_begin_array(ptr noundef nonnull @dumper)
  %22 = load i32, ptr %7, align 8
  %.not50 = icmp eq i32 %22, 0
  br i1 %.not50, label %._crit_edge49, label %.lr.ph48

.lr.ph48:                                         ; preds = %21
  %23 = getelementptr inbounds nuw i8, ptr %0, i64 16
  br label %24

24:                                               ; preds = %.lr.ph48, %._crit_edge
  %25 = phi i32 [ %22, %.lr.ph48 ], [ %73, %._crit_edge ]
  %indvars.iv53 = phi i64 [ 0, %.lr.ph48 ], [ %indvars.iv.next54, %._crit_edge ]
  %26 = load ptr, ptr %23, align 8
  %27 = getelementptr %struct._rtd_timestat, ptr %26, i64 %indvars.iv53
  %28 = load i32, ptr %27, align 8
  %.not51 = icmp eq i32 %28, 0
  br i1 %.not51, label %._crit_edge, label %.lr.ph

.lr.ph:                                           ; preds = %24
  %29 = getelementptr inbounds nuw i8, ptr %27, i64 8
  %30 = getelementptr inbounds nuw i8, ptr %27, i64 16
  %31 = getelementptr inbounds nuw i8, ptr %27, i64 20
  %32 = getelementptr inbounds nuw i8, ptr %27, i64 24
  %33 = getelementptr inbounds nuw i8, ptr %27, i64 28
  br label %34

34:                                               ; preds = %.lr.ph, %69
  %35 = phi i32 [ %28, %.lr.ph ], [ %70, %69 ]
  %indvars.iv = phi i64 [ 0, %.lr.ph ], [ %indvars.iv.next, %69 ]
  %36 = load ptr, ptr %29, align 8
  %37 = getelementptr %struct._timestat_t, ptr %36, i64 %indvars.iv
  %38 = load i32, ptr %37, align 8
  %39 = icmp eq i32 %38, 0
  br i1 %39, label %69, label %40

40:                                               ; preds = %34
  tail call void @json_dumper_begin_object(ptr noundef nonnull @dumper)
  %41 = load i32, ptr %7, align 8
  %42 = icmp eq i32 %41, 1
  %.sink.v = select i1 %42, i64 %indvars.iv, i64 %indvars.iv53
  %.sink = trunc i64 %.sink.v to i32
  %43 = tail call ptr @val_to_str_const(i32 noundef %.sink, ptr noundef %6, ptr noundef nonnull @.str.304)
  tail call void @json_dumper_set_member_name(ptr noundef nonnull @dumper, ptr noundef nonnull @.str.244)
  tail call void @json_dumper_value_string(ptr noundef nonnull @dumper, ptr noundef %43)
  %44 = load ptr, ptr %29, align 8
  %45 = getelementptr %struct._timestat_t, ptr %44, i64 %indvars.iv
  %46 = load i32, ptr %45, align 8
  tail call void (ptr, ptr, ...) @sharkd_json_value_anyf(ptr noundef nonnull @.str.196, ptr noundef nonnull @.str.123, i32 noundef %46)
  %47 = load ptr, ptr %29, align 8
  %48 = getelementptr %struct._timestat_t, ptr %47, i64 %indvars.iv, i32 3
  %49 = tail call double @nstime_to_sec(ptr noundef %48)
  tail call void (ptr, ptr, ...) @sharkd_json_value_anyf(ptr noundef nonnull @.str.248, ptr noundef nonnull @.str.125, double noundef %49)
  %50 = load ptr, ptr %29, align 8
  %51 = getelementptr %struct._timestat_t, ptr %50, i64 %indvars.iv, i32 4
  %52 = tail call double @nstime_to_sec(ptr noundef %51)
  tail call void (ptr, ptr, ...) @sharkd_json_value_anyf(ptr noundef nonnull @.str.249, ptr noundef nonnull @.str.125, double noundef %52)
  %53 = load ptr, ptr %29, align 8
  %54 = getelementptr %struct._timestat_t, ptr %53, i64 %indvars.iv, i32 5
  %55 = tail call double @nstime_to_sec(ptr noundef %54)
  tail call void (ptr, ptr, ...) @sharkd_json_value_anyf(ptr noundef nonnull @.str.305, ptr noundef nonnull @.str.125, double noundef %55)
  %56 = load ptr, ptr %29, align 8
  %57 = getelementptr %struct._timestat_t, ptr %56, i64 %indvars.iv, i32 1
  %58 = load i32, ptr %57, align 4
  tail call void (ptr, ptr, ...) @sharkd_json_value_anyf(ptr noundef nonnull @.str.306, ptr noundef nonnull @.str.123, i32 noundef %58)
  %59 = load ptr, ptr %29, align 8
  %60 = getelementptr %struct._timestat_t, ptr %59, i64 %indvars.iv, i32 2
  %61 = load i32, ptr %60, align 8
  tail call void (ptr, ptr, ...) @sharkd_json_value_anyf(ptr noundef nonnull @.str.307, ptr noundef nonnull @.str.123, i32 noundef %61)
  %62 = load i32, ptr %7, align 8
  %.not = icmp eq i32 %62, 1
  br i1 %.not, label %68, label %63

63:                                               ; preds = %40
  %64 = load i32, ptr %30, align 8
  tail call void (ptr, ptr, ...) @sharkd_json_value_anyf(ptr noundef nonnull @.str.300, ptr noundef nonnull @.str.123, i32 noundef %64)
  %65 = load i32, ptr %31, align 4
  tail call void (ptr, ptr, ...) @sharkd_json_value_anyf(ptr noundef nonnull @.str.301, ptr noundef nonnull @.str.123, i32 noundef %65)
  %66 = load i32, ptr %32, align 8
  tail call void (ptr, ptr, ...) @sharkd_json_value_anyf(ptr noundef nonnull @.str.302, ptr noundef nonnull @.str.123, i32 noundef %66)
  %67 = load i32, ptr %33, align 4
  tail call void (ptr, ptr, ...) @sharkd_json_value_anyf(ptr noundef nonnull @.str.303, ptr noundef nonnull @.str.123, i32 noundef %67)
  br label %68

68:                                               ; preds = %63, %40
  tail call void @json_dumper_end_object(ptr noundef nonnull @dumper)
  %.pre = load i32, ptr %27, align 8
  br label %69

69:                                               ; preds = %34, %68
  %70 = phi i32 [ %35, %34 ], [ %.pre, %68 ]
  %indvars.iv.next = add nuw nsw i64 %indvars.iv, 1
  %71 = zext i32 %70 to i64
  %72 = icmp samesign ult i64 %indvars.iv.next, %71
  br i1 %72, label %34, label %._crit_edge.loopexit, !llvm.loop !57

._crit_edge.loopexit:                             ; preds = %69
  %.pre56 = load i32, ptr %7, align 8
  br label %._crit_edge

._crit_edge:                                      ; preds = %._crit_edge.loopexit, %24
  %73 = phi i32 [ %.pre56, %._crit_edge.loopexit ], [ %25, %24 ]
  %indvars.iv.next54 = add nuw nsw i64 %indvars.iv53, 1
  %74 = zext i32 %73 to i64
  %75 = icmp samesign ult i64 %indvars.iv.next54, %74
  br i1 %75, label %24, label %._crit_edge49, !llvm.loop !58

._crit_edge49:                                    ; preds = %._crit_edge, %21
  tail call void @json_dumper_end_array(ptr noundef nonnull @dumper)
  tail call void @json_dumper_end_object(ptr noundef nonnull @dumper)
  ret void
}